target datalayout = "e-m:e-p270:32:32-p271:32:32-p272:64:64-i64:64-i128:128-f80:128-n8:16:32:64-S128"
target triple = "x86_64-pc-linux-gnu"

%struct.sdshdr8 = type { i8, i8, i8, [0 x i8] }
%struct.sdshdr16 = type <{ i16, i16, i8, [0 x i8] }>
%struct.sdshdr32 = type <{ i32, i32, i8, [0 x i8] }>
%struct.sdshdr64 = type <{ i64, i64, i8, [0 x i8] }>

@.str.1 = private unnamed_addr constant [9 x i8] c"t_zset.c\00", align 1
@.str.3 = private unnamed_addr constant [13 x i8] c"sptr != NULL\00", align 1

; Function Attrs: nounwind uwtable
define dso_local double @zzlStrtod(ptr noundef %0, i32 noundef %1) #0 {
  %3 = alloca ptr, align 8
  %4 = alloca i32, align 4
  %5 = alloca [128 x i8], align 16
  store ptr %0, ptr %3, align 8, !tbaa !11
  store i32 %1, ptr %4, align 4, !tbaa !5
  call void @llvm.lifetime.start.p0(i64 128, ptr %5) #12
  %6 = load i32, ptr %4, align 4, !tbaa !5
  %7 = zext i32 %6 to i64
  %8 = icmp ugt i64 %7, 127
  br i1 %8, label %9, label %10

9:                                                ; preds = %2
  store i32 127, ptr %4, align 4, !tbaa !5
  br label %10

10:                                               ; preds = %9, %2
  %11 = getelementptr inbounds [128 x i8], ptr %5, i64 0, i64 0
  %12 = load ptr, ptr %3, align 8, !tbaa !11
  %13 = load i32, ptr %4, align 4, !tbaa !5
  %14 = zext i32 %13 to i64
  call void @llvm.memcpy.p0.p0.i64(ptr align 16 %11, ptr align 1 %12, i64 %14, i1 false)
  %15 = load i32, ptr %4, align 4, !tbaa !5
  %16 = zext i32 %15 to i64
  %17 = getelementptr inbounds nuw [128 x i8], ptr %5, i64 0, i64 %16
  store i8 0, ptr %17, align 1, !tbaa !86
  %18 = getelementptr inbounds [128 x i8], ptr %5, i64 0, i64 0
  %19 = call double @fast_float_strtod(ptr noundef %18, ptr noundef null)
  call void @llvm.lifetime.end.p0(i64 128, ptr %5) #12
  ret double %19
}

; Function Attrs: nounwind uwtable
define dso_local double @zzlGetScore(ptr noundef %0) #0 {
  %2 = alloca ptr, align 8
  %3 = alloca ptr, align 8
  %4 = alloca i32, align 4
  %5 = alloca i64, align 8
  %6 = alloca double, align 8
  store ptr %0, ptr %2, align 8, !tbaa !11
  call void @llvm.lifetime.start.p0(i64 8, ptr %3) #12
  call void @llvm.lifetime.start.p0(i64 4, ptr %4) #12
  call void @llvm.lifetime.start.p0(i64 8, ptr %5) #12
  call void @llvm.lifetime.start.p0(i64 8, ptr %6) #12
  %7 = load ptr, ptr %2, align 8, !tbaa !11
  %8 = icmp ne ptr %7, null
  %9 = xor i1 %8, true
  %10 = xor i1 %9, true
  %11 = zext i1 %10 to i32
  %12 = sext i32 %11 to i64
  %13 = call i64 @llvm.expect.i64(i64 %12, i64 1)
  %14 = icmp ne i64 %13, 0
  br i1 %14, label %15, label %16

15:                                               ; preds = %1
  br label %18

16:                                               ; preds = %1
  call void @_serverAssert(ptr noundef @.str.3, ptr noundef @.str.1, i32 noundef 785)
  call void @abort() #14
  unreachable

17:                                               ; No predecessors!
  br label %18

18:                                               ; preds = %17, %15
  %19 = load ptr, ptr %2, align 8, !tbaa !11
  %20 = call ptr @lpGetValue(ptr noundef %19, ptr noundef %4, ptr noundef %5)
  store ptr %20, ptr %3, align 8, !tbaa !11
  %21 = load ptr, ptr %3, align 8, !tbaa !11
  %22 = icmp ne ptr %21, null
  br i1 %22, label %23, label %27

23:                                               ; preds = %18
  %24 = load ptr, ptr %3, align 8, !tbaa !11
  %25 = load i32, ptr %4, align 4, !tbaa !5
  %26 = call double @zzlStrtod(ptr noundef %24, i32 noundef %25)
  store double %26, ptr %6, align 8, !tbaa !9
  br label %30

27:                                               ; preds = %18
  %28 = load i64, ptr %5, align 8, !tbaa !99
  %29 = sitofp i64 %28 to double
  store double %29, ptr %6, align 8, !tbaa !9
  br label %30

30:                                               ; preds = %27, %23
  %31 = load double, ptr %6, align 8, !tbaa !9
  call void @llvm.lifetime.end.p0(i64 8, ptr %6) #12
  call void @llvm.lifetime.end.p0(i64 8, ptr %5) #12
  call void @llvm.lifetime.end.p0(i64 4, ptr %4) #12
  call void @llvm.lifetime.end.p0(i64 8, ptr %3) #12
  ret double %31
}

; Function Attrs: inlinehint nounwind uwtable
define internal i64 @sdslen(ptr noundef %0) #8 {
  %2 = alloca i64, align 8
  %3 = alloca ptr, align 8
  %4 = alloca i8, align 1
  %5 = alloca i32, align 4
  store ptr %0, ptr %3, align 8, !tbaa !11
  call void @llvm.lifetime.start.p0(i64 1, ptr %4) #12
  %6 = load ptr, ptr %3, align 8, !tbaa !11
  %7 = getelementptr inbounds i8, ptr %6, i64 -1
  %8 = load i8, ptr %7, align 1, !tbaa !86
  store i8 %8, ptr %4, align 1, !tbaa !86
  %9 = load i8, ptr %4, align 1, !tbaa !86
  %10 = zext i8 %9 to i32
  %11 = and i32 %10, 7
  switch i32 %11, label %40 [
    i32 0, label %12
    i32 1, label %17
    i32 2, label %23
    i32 3, label %29
    i32 4, label %35
  ]

12:                                               ; preds = %1
  %13 = load i8, ptr %4, align 1, !tbaa !86
  %14 = zext i8 %13 to i32
  %15 = ashr i32 %14, 3
  %16 = sext i32 %15 to i64
  store i64 %16, ptr %2, align 8
  store i32 1, ptr %5, align 4
  br label %41

17:                                               ; preds = %1
  %18 = load ptr, ptr %3, align 8, !tbaa !11
  %19 = getelementptr inbounds i8, ptr %18, i64 -3
  %20 = getelementptr inbounds nuw %struct.sdshdr8, ptr %19, i32 0, i32 0
  %21 = load i8, ptr %20, align 1, !tbaa !86
  %22 = zext i8 %21 to i64
  store i64 %22, ptr %2, align 8
  store i32 1, ptr %5, align 4
  br label %41

23:                                               ; preds = %1
  %24 = load ptr, ptr %3, align 8, !tbaa !11
  %25 = getelementptr inbounds i8, ptr %24, i64 -5
  %26 = getelementptr inbounds nuw %struct.sdshdr16, ptr %25, i32 0, i32 0
  %27 = load i16, ptr %26, align 1, !tbaa !90
  %28 = zext i16 %27 to i64
  store i64 %28, ptr %2, align 8
  store i32 1, ptr %5, align 4
  br label %41

29:                                               ; preds = %1
  %30 = load ptr, ptr %3, align 8, !tbaa !11
  %31 = getelementptr inbounds i8, ptr %30, i64 -9
  %32 = getelementptr inbounds nuw %struct.sdshdr32, ptr %31, i32 0, i32 0
  %33 = load i32, ptr %32, align 1, !tbaa !5
  %34 = zext i32 %33 to i64
  store i64 %34, ptr %2, align 8
  store i32 1, ptr %5, align 4
  br label %41

35:                                               ; preds = %1
  %36 = load ptr, ptr %3, align 8, !tbaa !11
  %37 = getelementptr inbounds i8, ptr %36, i64 -17
  %38 = getelementptr inbounds nuw %struct.sdshdr64, ptr %37, i32 0, i32 0
  %39 = load i64, ptr %38, align 1, !tbaa !31
  store i64 %39, ptr %2, align 8
  store i32 1, ptr %5, align 4
  br label %41

40:                                               ; preds = %1
  store i64 0, ptr %2, align 8
  store i32 1, ptr %5, align 4
  br label %41

41:                                               ; preds = %40, %35, %29, %23, %17, %12
  call void @llvm.lifetime.end.p0(i64 1, ptr %4) #12
  %42 = load i64, ptr %2, align 8
  ret i64 %42
}

; Function Attrs: nounwind uwtable
define dso_local ptr @zzlFind(ptr noundef %0, ptr noundef %1, ptr noundef %2) #0 {
  %4 = alloca ptr, align 8
  %5 = alloca ptr, align 8
  %6 = alloca ptr, align 8
  %7 = alloca ptr, align 8
  %8 = alloca ptr, align 8
  %9 = alloca ptr, align 8
  %10 = alloca i32, align 4
  store ptr %0, ptr %5, align 8, !tbaa !11
  store ptr %1, ptr %6, align 8, !tbaa !11
  store ptr %2, ptr %7, align 8, !tbaa !105
  call void @llvm.lifetime.start.p0(i64 8, ptr %8) #12
  call void @llvm.lifetime.start.p0(i64 8, ptr %9) #12
  %11 = load ptr, ptr %5, align 8, !tbaa !11
  %12 = call ptr @lpFirst(ptr noundef %11)
  store ptr %12, ptr %8, align 8, !tbaa !11
  %13 = icmp eq ptr %12, null
  br i1 %13, label %14, label %15

14:                                               ; preds = %3
  store ptr null, ptr %4, align 8
  store i32 1, ptr %10, align 4
  br label %50

15:                                               ; preds = %3
  %16 = load ptr, ptr %5, align 8, !tbaa !11
  %17 = load ptr, ptr %8, align 8, !tbaa !11
  %18 = load ptr, ptr %6, align 8, !tbaa !11
  %19 = load ptr, ptr %6, align 8, !tbaa !11
  %20 = call i64 @sdslen(ptr noundef %19)
  %21 = trunc i64 %20 to i32
  %22 = call ptr @lpFind(ptr noundef %16, ptr noundef %17, ptr noundef %18, i32 noundef %21, i32 noundef 1)
  store ptr %22, ptr %8, align 8, !tbaa !11
  %23 = load ptr, ptr %8, align 8, !tbaa !11
  %24 = icmp ne ptr %23, null
  br i1 %24, label %25, label %49

25:                                               ; preds = %15
  %26 = load ptr, ptr %5, align 8, !tbaa !11
  %27 = load ptr, ptr %8, align 8, !tbaa !11
  %28 = call ptr @lpNext(ptr noundef %26, ptr noundef %27)
  store ptr %28, ptr %9, align 8, !tbaa !11
  %29 = load ptr, ptr %9, align 8, !tbaa !11
  %30 = icmp ne ptr %29, null
  %31 = xor i1 %30, true
  %32 = xor i1 %31, true
  %33 = zext i1 %32 to i32
  %34 = sext i32 %33 to i64
  %35 = call i64 @llvm.expect.i64(i64 %34, i64 1)
  %36 = icmp ne i64 %35, 0
  br i1 %36, label %37, label %38

37:                                               ; preds = %25
  br label %40

38:                                               ; preds = %25
  call void @_serverAssert(ptr noundef @.str.3, ptr noundef @.str.1, i32 noundef 1060)
  call void @abort() #14
  unreachable

39:                                               ; No predecessors!
  br label %40

40:                                               ; preds = %39, %37
  %41 = load ptr, ptr %7, align 8, !tbaa !105
  %42 = icmp ne ptr %41, null
  br i1 %42, label %43, label %47

43:                                               ; preds = %40
  %44 = load ptr, ptr %9, align 8, !tbaa !11
  %45 = call double @zzlGetScore(ptr noundef %44)
  %46 = load ptr, ptr %7, align 8, !tbaa !105
  store double %45, ptr %46, align 8, !tbaa !9
  br label %47

47:                                               ; preds = %43, %40
  %48 = load ptr, ptr %8, align 8, !tbaa !11
  store ptr %48, ptr %4, align 8
  store i32 1, ptr %10, align 4
  br label %50

49:                                               ; preds = %15
  store ptr null, ptr %4, align 8
  store i32 1, ptr %10, align 4
  br label %50

50:                                               ; preds = %49, %47, %14
  call void @llvm.lifetime.end.p0(i64 8, ptr %9) #12
  call void @llvm.lifetime.end.p0(i64 8, ptr %8) #12
  %51 = load ptr, ptr %4, align 8
  ret ptr %51
}