; Function Attrs: nounwind uwtable
define dso_local ptr @zzlFind(ptr noundef %0, ptr noundef %1, ptr noundef writeonly captures(address_is_null) %2) local_unnamed_addr #0 {
  %4 = alloca [128 x i8], align 16
  %5 = alloca i32, align 4
  %6 = alloca i64, align 8
  %7 = tail call ptr @lpFirst(ptr noundef %0) #18
  %8 = icmp eq ptr %7, null
  br i1 %8, label %48, label %9

9:                                                ; preds = %3
  %10 = getelementptr inbounds i8, ptr %1, i64 -1
  %11 = load i8, ptr %10, align 1, !tbaa !77
  %12 = zext i8 %11 to i32
  %13 = and i32 %12, 7
  switch i32 %13, label %sdslen.exit [
    i32 0, label %14
    i32 1, label %17
    i32 2, label %21
    i32 3, label %25
    i32 4, label %29
  ]

14:                                               ; preds = %9
  %15 = lshr i32 %12, 3
  %16 = zext nneg i32 %15 to i64
  br label %sdslen.exit

17:                                               ; preds = %9
  %18 = getelementptr inbounds i8, ptr %1, i64 -3
  %19 = load i8, ptr %18, align 1, !tbaa !77
  %20 = zext i8 %19 to i64
  br label %sdslen.exit

21:                                               ; preds = %9
  %22 = getelementptr inbounds i8, ptr %1, i64 -5
  %23 = load i16, ptr %22, align 1, !tbaa !79
  %24 = zext i16 %23 to i64
  br label %sdslen.exit

25:                                               ; preds = %9
  %26 = getelementptr inbounds i8, ptr %1, i64 -9
  %27 = load i32, ptr %26, align 1, !tbaa !78
  %28 = zext i32 %27 to i64
  br label %sdslen.exit

29:                                               ; preds = %9
  %30 = getelementptr inbounds i8, ptr %1, i64 -17
  %31 = load i64, ptr %30, align 1, !tbaa !26
  br label %sdslen.exit

sdslen.exit:                                      ; preds = %9, %14, %17, %21, %25, %29
  %.0.i = phi i64 [ %31, %29 ], [ %28, %25 ], [ %24, %21 ], [ %20, %17 ], [ %16, %14 ], [ 0, %9 ]
  %32 = trunc i64 %.0.i to i32
  %33 = tail call ptr @lpFind(ptr noundef %0, ptr noundef nonnull %7, ptr noundef nonnull %1, i32 noundef %32, i32 noundef 1) #18
  %.not = icmp eq ptr %33, null
  br i1 %.not, label %48, label %34

34:                                               ; preds = %sdslen.exit
  %35 = tail call ptr @lpNext(ptr noundef %0, ptr noundef nonnull %33) #18
  %.not18 = icmp eq ptr %35, null
  br i1 %.not18, label %36, label %37, !prof !40

36:                                               ; preds = %34
  tail call void @_serverAssert(ptr noundef nonnull @.str.3, ptr noundef nonnull @.str.1, i32 noundef 1060) #18
  tail call void @abort() #19
  unreachable

37:                                               ; preds = %34
  %.not19 = icmp eq ptr %2, null
  br i1 %.not19, label %48, label %38

38:                                               ; preds = %37
  call void @llvm.lifetime.start.p0(i64 4, ptr nonnull %5) #18
  call void @llvm.lifetime.start.p0(i64 8, ptr nonnull %6) #18
  %39 = call ptr @lpGetValue(ptr noundef nonnull %35, ptr noundef nonnull %5, ptr noundef nonnull %6) #18
  %.not7.i = icmp eq ptr %39, null
  br i1 %.not7.i, label %45, label %40

40:                                               ; preds = %38
  %41 = load i32, ptr %5, align 4, !tbaa !78
  call void @llvm.lifetime.start.p0(i64 128, ptr nonnull %4) #18
  %spec.store.select.i.i = call i32 @llvm.umin.i32(i32 %41, i32 127)
  %42 = zext nneg i32 %spec.store.select.i.i to i64
  call void @llvm.memcpy.p0.p0.i64(ptr nonnull align 16 %4, ptr nonnull readonly align 1 %39, i64 %42, i1 false)
  %43 = getelementptr inbounds nuw [128 x i8], ptr %4, i64 0, i64 %42
  store i8 0, ptr %43, align 1, !tbaa !77
  %44 = call double @fast_float_strtod(ptr noundef nonnull %4, ptr noundef null) #18
  call void @llvm.lifetime.end.p0(i64 128, ptr nonnull %4) #18
  br label %zzlGetScore.exit

45:                                               ; preds = %38
  %46 = load i64, ptr %6, align 8, !tbaa !88
  %47 = sitofp i64 %46 to double
  br label %zzlGetScore.exit

zzlGetScore.exit:                                 ; preds = %40, %45
  %.0.i20 = phi double [ %44, %40 ], [ %47, %45 ]
  call void @llvm.lifetime.end.p0(i64 8, ptr nonnull %6) #18
  call void @llvm.lifetime.end.p0(i64 4, ptr nonnull %5) #18
  store double %.0.i20, ptr %2, align 8, !tbaa !5
  br label %48

48:                                               ; preds = %sdslen.exit, %37, %zzlGetScore.exit, %3
  %.0 = phi ptr [ null, %3 ], [ %33, %zzlGetScore.exit ], [ %33, %37 ], [ null, %sdslen.exit ]
  ret ptr %.0
}